target datalayout = "e-m:e-p270:32:32-p271:32:32-p272:64:64-i64:64-i128:128-f80:128-n8:16:32:64-S128"
target triple = "x86_64-pc-linux-gnu"

%struct.Pf_Mat_t_ = type { i32 }
%struct.Pf_Man_t_ = type { ptr, ptr, ptr, ptr, ptr, i32, ptr, %struct.Vec_Ptr_t_, %struct.Vec_Int_t_, %struct.Vec_Flt_t_, %struct.Vec_Int_t_, i32, i32, i32, i32, float, float, i64, [6 x double], i32 }
%struct.Vec_Ptr_t_ = type { i32, i32, ptr }
%struct.Vec_Flt_t_ = type { i32, i32, ptr }
%struct.Vec_Int_t_ = type { i32, i32, ptr }
%struct.Vec_Mem_t_ = type { i32, i32, i32, i32, i32, i32, ptr, ptr, ptr }
%struct.Mio_Cell_t_ = type { ptr, i32, float, i64, [6 x float] }

@.str = private unnamed_addr constant [7 x i8] c"%6d : \00", align 1
@.str.1 = private unnamed_addr constant [12 x i8] c"Gate %16s  \00", align 1
@.str.2 = private unnamed_addr constant [14 x i8] c"Area =%8.2f  \00", align 1
@.str.3 = private unnamed_addr constant [11 x i8] c"In = %d   \00", align 1
@.str.4 = private unnamed_addr constant [8 x i8] c" compl \00", align 1
@.str.5 = private unnamed_addr constant [8 x i8] c"       \00", align 1
@.str.6 = private unnamed_addr constant [3 x i8] c"%c\00", align 1
@.str.7 = private unnamed_addr constant [3 x i8] c"  \00", align 1
@s_Truths6Neg = internal global [6 x i64] [i64 6148914691236517205, i64 3689348814741910323, i64 1085102592571150095, i64 71777214294589695, i64 281470681808895, i64 4294967295], align 16

; Function Attrs: inlinehint nounwind uwtable
define internal i32 @Abc_TtWordNum(i32 noundef %0) #2 {
  %2 = alloca i32, align 4
  store i32 %0, ptr %2, align 4, !tbaa !12
  %3 = load i32, ptr %2, align 4, !tbaa !12
  %4 = icmp sle i32 %3, 6
  br i1 %4, label %5, label %6

5:                                                ; preds = %1
  br label %10

6:                                                ; preds = %1
  %7 = load i32, ptr %2, align 4, !tbaa !12
  %8 = sub nsw i32 %7, 6
  %9 = shl i32 1, %8
  br label %10

10:                                               ; preds = %6, %5
  %11 = phi i32 [ 1, %5 ], [ %9, %6 ]
  ret i32 %11
}

; Function Attrs: inlinehint nounwind uwtable
define internal i32 @Abc_Tt6HasVar(i64 noundef %0, i32 noundef %1) #2 {
  %3 = alloca i64, align 8
  %4 = alloca i32, align 4
  store i64 %0, ptr %3, align 8, !tbaa !8
  store i32 %1, ptr %4, align 4, !tbaa !12
  %5 = load i64, ptr %3, align 8, !tbaa !8
  %6 = load i32, ptr %4, align 4, !tbaa !12
  %7 = shl i32 1, %6
  %8 = zext i32 %7 to i64
  %9 = lshr i64 %5, %8
  %10 = load i32, ptr %4, align 4, !tbaa !12
  %11 = sext i32 %10 to i64
  %12 = getelementptr inbounds [6 x i64], ptr @s_Truths6Neg, i64 0, i64 %11
  %13 = load i64, ptr %12, align 8, !tbaa !8
  %14 = and i64 %9, %13
  %15 = load i64, ptr %3, align 8, !tbaa !8
  %16 = load i32, ptr %4, align 4, !tbaa !12
  %17 = sext i32 %16 to i64
  %18 = getelementptr inbounds [6 x i64], ptr @s_Truths6Neg, i64 0, i64 %17
  %19 = load i64, ptr %18, align 8, !tbaa !8
  %20 = and i64 %15, %19
  %21 = icmp ne i64 %14, %20
  %22 = zext i1 %21 to i32
  ret i32 %22
}

; Function Attrs: inlinehint nounwind uwtable
define internal i32 @Abc_TtHasVar(ptr noundef %0, i32 noundef %1, i32 noundef %2) #2 {
  %4 = alloca i32, align 4
  %5 = alloca ptr, align 8
  %6 = alloca i32, align 4
  %7 = alloca i32, align 4
  %8 = alloca i32, align 4
  %9 = alloca i32, align 4
  %10 = alloca i32, align 4
  %11 = alloca i32, align 4
  %12 = alloca i32, align 4
  %13 = alloca i32, align 4
  %14 = alloca ptr, align 8
  store ptr %0, ptr %5, align 8, !tbaa !36
  store i32 %1, ptr %6, align 4, !tbaa !12
  store i32 %2, ptr %7, align 4, !tbaa !12
  %15 = load i32, ptr %6, align 4, !tbaa !12
  %16 = icmp sle i32 %15, 6
  br i1 %16, label %17, label %23

17:                                               ; preds = %3
  %18 = load ptr, ptr %5, align 8, !tbaa !36
  %19 = getelementptr inbounds i64, ptr %18, i64 0
  %20 = load i64, ptr %19, align 8, !tbaa !8
  %21 = load i32, ptr %7, align 4, !tbaa !12
  %22 = call i32 @Abc_Tt6HasVar(i64 noundef %20, i32 noundef %21)
  store i32 %22, ptr %4, align 4
  br label %113

23:                                               ; preds = %3
  %24 = load i32, ptr %7, align 4, !tbaa !12
  %25 = icmp slt i32 %24, 6
  br i1 %25, label %26, label %67

26:                                               ; preds = %23
  call void @llvm.lifetime.start.p0(i64 4, ptr %8) #13
  call void @llvm.lifetime.start.p0(i64 4, ptr %9) #13
  %27 = load i32, ptr %7, align 4, !tbaa !12
  %28 = shl i32 1, %27
  store i32 %28, ptr %9, align 4, !tbaa !12
  call void @llvm.lifetime.start.p0(i64 4, ptr %10) #13
  %29 = load i32, ptr %6, align 4, !tbaa !12
  %30 = call i32 @Abc_TtWordNum(i32 noundef %29)
  store i32 %30, ptr %10, align 4, !tbaa !12
  store i32 0, ptr %8, align 4, !tbaa !12
  br label %31

31:                                               ; preds = %62, %26
  %32 = load i32, ptr %8, align 4, !tbaa !12
  %33 = load i32, ptr %10, align 4, !tbaa !12
  %34 = icmp slt i32 %32, %33
  br i1 %34, label %35, label %65

35:                                               ; preds = %31
  %36 = load ptr, ptr %5, align 8, !tbaa !36
  %37 = load i32, ptr %8, align 4, !tbaa !12
  %38 = sext i32 %37 to i64
  %39 = getelementptr inbounds i64, ptr %36, i64 %38
  %40 = load i64, ptr %39, align 8, !tbaa !8
  %41 = load i32, ptr %9, align 4, !tbaa !12
  %42 = zext i32 %41 to i64
  %43 = lshr i64 %40, %42
  %44 = load i32, ptr %7, align 4, !tbaa !12
  %45 = sext i32 %44 to i64
  %46 = getelementptr inbounds [6 x i64], ptr @s_Truths6Neg, i64 0, i64 %45
  %47 = load i64, ptr %46, align 8, !tbaa !8
  %48 = and i64 %43, %47
  %49 = load ptr, ptr %5, align 8, !tbaa !36
  %50 = load i32, ptr %8, align 4, !tbaa !12
  %51 = sext i32 %50 to i64
  %52 = getelementptr inbounds i64, ptr %49, i64 %51
  %53 = load i64, ptr %52, align 8, !tbaa !8
  %54 = load i32, ptr %7, align 4, !tbaa !12
  %55 = sext i32 %54 to i64
  %56 = getelementptr inbounds [6 x i64], ptr @s_Truths6Neg, i64 0, i64 %55
  %57 = load i64, ptr %56, align 8, !tbaa !8
  %58 = and i64 %53, %57
  %59 = icmp ne i64 %48, %58
  br i1 %59, label %60, label %61

60:                                               ; preds = %35
  store i32 1, ptr %4, align 4
  store i32 1, ptr %11, align 4
  br label %66

61:                                               ; preds = %35
  br label %62

62:                                               ; preds = %61
  %63 = load i32, ptr %8, align 4, !tbaa !12
  %64 = add nsw i32 %63, 1
  store i32 %64, ptr %8, align 4, !tbaa !12
  br label %31, !llvm.loop !198

65:                                               ; preds = %31
  store i32 0, ptr %4, align 4
  store i32 1, ptr %11, align 4
  br label %66

66:                                               ; preds = %65, %60
  call void @llvm.lifetime.end.p0(i64 4, ptr %10) #13
  call void @llvm.lifetime.end.p0(i64 4, ptr %9) #13
  call void @llvm.lifetime.end.p0(i64 4, ptr %8) #13
  br label %113

67:                                               ; preds = %23
  call void @llvm.lifetime.start.p0(i64 4, ptr %12) #13
  call void @llvm.lifetime.start.p0(i64 4, ptr %13) #13
  %68 = load i32, ptr %7, align 4, !tbaa !12
  %69 = sub nsw i32 %68, 6
  %70 = shl i32 1, %69
  store i32 %70, ptr %13, align 4, !tbaa !12
  call void @llvm.lifetime.start.p0(i64 8, ptr %14) #13
  %71 = load ptr, ptr %5, align 8, !tbaa !36
  %72 = load i32, ptr %6, align 4, !tbaa !12
  %73 = call i32 @Abc_TtWordNum(i32 noundef %72)
  %74 = sext i32 %73 to i64
  %75 = getelementptr inbounds i64, ptr %71, i64 %74
  store ptr %75, ptr %14, align 8, !tbaa !36
  br label %76

76:                                               ; preds = %105, %67
  %77 = load ptr, ptr %5, align 8, !tbaa !36
  %78 = load ptr, ptr %14, align 8, !tbaa !36
  %79 = icmp ult ptr %77, %78
  br i1 %79, label %80, label %111

80:                                               ; preds = %76
  store i32 0, ptr %12, align 4, !tbaa !12
  br label %81

81:                                               ; preds = %101, %80
  %82 = load i32, ptr %12, align 4, !tbaa !12
  %83 = load i32, ptr %13, align 4, !tbaa !12
  %84 = icmp slt i32 %82, %83
  br i1 %84, label %85, label %104

85:                                               ; preds = %81
  %86 = load ptr, ptr %5, align 8, !tbaa !36
  %87 = load i32, ptr %12, align 4, !tbaa !12
  %88 = sext i32 %87 to i64
  %89 = getelementptr inbounds i64, ptr %86, i64 %88
  %90 = load i64, ptr %89, align 8, !tbaa !8
  %91 = load ptr, ptr %5, align 8, !tbaa !36
  %92 = load i32, ptr %13, align 4, !tbaa !12
  %93 = load i32, ptr %12, align 4, !tbaa !12
  %94 = add nsw i32 %92, %93
  %95 = sext i32 %94 to i64
  %96 = getelementptr inbounds i64, ptr %91, i64 %95
  %97 = load i64, ptr %96, align 8, !tbaa !8
  %98 = icmp ne i64 %90, %97
  br i1 %98, label %99, label %100

99:                                               ; preds = %85
  store i32 1, ptr %4, align 4
  store i32 1, ptr %11, align 4
  br label %112

100:                                              ; preds = %85
  br label %101

101:                                              ; preds = %100
  %102 = load i32, ptr %12, align 4, !tbaa !12
  %103 = add nsw i32 %102, 1
  store i32 %103, ptr %12, align 4, !tbaa !12
  br label %81, !llvm.loop !199

104:                                              ; preds = %81
  br label %105

105:                                              ; preds = %104
  %106 = load i32, ptr %13, align 4, !tbaa !12
  %107 = mul nsw i32 2, %106
  %108 = load ptr, ptr %5, align 8, !tbaa !36
  %109 = sext i32 %107 to i64
  %110 = getelementptr inbounds i64, ptr %108, i64 %109
  store ptr %110, ptr %5, align 8, !tbaa !36
  br label %76, !llvm.loop !200

111:                                              ; preds = %76
  store i32 0, ptr %4, align 4
  store i32 1, ptr %11, align 4
  br label %112

112:                                              ; preds = %111, %99
  call void @llvm.lifetime.end.p0(i64 8, ptr %14) #13
  call void @llvm.lifetime.end.p0(i64 4, ptr %13) #13
  call void @llvm.lifetime.end.p0(i64 4, ptr %12) #13
  br label %113

113:                                              ; preds = %112, %66, %17
  %114 = load i32, ptr %4, align 4
  ret i32 %114
}

; Function Attrs: inlinehint nounwind uwtable
define internal i32 @Abc_TtSupportSize(ptr noundef %0, i32 noundef %1) #2 {
  %3 = alloca ptr, align 8
  %4 = alloca i32, align 4
  %5 = alloca i32, align 4
  %6 = alloca i32, align 4
  store ptr %0, ptr %3, align 8, !tbaa !36
  store i32 %1, ptr %4, align 4, !tbaa !12
  call void @llvm.lifetime.start.p0(i64 4, ptr %5) #13
  call void @llvm.lifetime.start.p0(i64 4, ptr %6) #13
  store i32 0, ptr %6, align 4, !tbaa !12
  store i32 0, ptr %5, align 4, !tbaa !12
  br label %7

7:                                                ; preds = %21, %2
  %8 = load i32, ptr %5, align 4, !tbaa !12
  %9 = load i32, ptr %4, align 4, !tbaa !12
  %10 = icmp slt i32 %8, %9
  br i1 %10, label %11, label %24

11:                                               ; preds = %7
  %12 = load ptr, ptr %3, align 8, !tbaa !36
  %13 = load i32, ptr %4, align 4, !tbaa !12
  %14 = load i32, ptr %5, align 4, !tbaa !12
  %15 = call i32 @Abc_TtHasVar(ptr noundef %12, i32 noundef %13, i32 noundef %14)
  %16 = icmp ne i32 %15, 0
  br i1 %16, label %17, label %20

17:                                               ; preds = %11
  %18 = load i32, ptr %6, align 4, !tbaa !12
  %19 = add nsw i32 %18, 1
  store i32 %19, ptr %6, align 4, !tbaa !12
  br label %20

20:                                               ; preds = %17, %11
  br label %21

21:                                               ; preds = %20
  %22 = load i32, ptr %5, align 4, !tbaa !12
  %23 = add nsw i32 %22, 1
  store i32 %23, ptr %5, align 4, !tbaa !12
  br label %7, !llvm.loop !75

24:                                               ; preds = %7
  %25 = load i32, ptr %6, align 4, !tbaa !12
  call void @llvm.lifetime.end.p0(i64 4, ptr %6) #13
  call void @llvm.lifetime.end.p0(i64 4, ptr %5) #13
  ret i32 %25
}

; Function Attrs: inlinehint nounwind uwtable
define internal ptr @Vec_MemReadEntry(ptr noundef %0, i32 noundef %1) #2 {
  %3 = alloca ptr, align 8
  %4 = alloca i32, align 4
  store ptr %0, ptr %3, align 8, !tbaa !35
  store i32 %1, ptr %4, align 4, !tbaa !12
  %5 = load ptr, ptr %3, align 8, !tbaa !35
  %6 = getelementptr inbounds nuw %struct.Vec_Mem_t_, ptr %5, i32 0, i32 6
  %7 = load ptr, ptr %6, align 8, !tbaa !71
  %8 = load i32, ptr %4, align 4, !tbaa !12
  %9 = load ptr, ptr %3, align 8, !tbaa !35
  %10 = getelementptr inbounds nuw %struct.Vec_Mem_t_, ptr %9, i32 0, i32 2
  %11 = load i32, ptr %10, align 8, !tbaa !72
  %12 = ashr i32 %8, %11
  %13 = sext i32 %12 to i64
  %14 = getelementptr inbounds ptr, ptr %7, i64 %13
  %15 = load ptr, ptr %14, align 8, !tbaa !36
  %16 = load ptr, ptr %3, align 8, !tbaa !35
  %17 = getelementptr inbounds nuw %struct.Vec_Mem_t_, ptr %16, i32 0, i32 0
  %18 = load i32, ptr %17, align 8, !tbaa !73
  %19 = load i32, ptr %4, align 4, !tbaa !12
  %20 = load ptr, ptr %3, align 8, !tbaa !35
  %21 = getelementptr inbounds nuw %struct.Vec_Mem_t_, ptr %20, i32 0, i32 3
  %22 = load i32, ptr %21, align 4, !tbaa !74
  %23 = and i32 %19, %22
  %24 = mul nsw i32 %18, %23
  %25 = sext i32 %24 to i64
  %26 = getelementptr inbounds i64, ptr %15, i64 %25
  ret ptr %26
}

; Function Attrs: nounwind uwtable
define void @Pf_StoPrintOne(ptr noundef %0, i32 noundef %1, i32 noundef %2, i32 noundef %3, i32 noundef %4, i32 %5) #0 {
  %7 = alloca %struct.Pf_Mat_t_, align 4
  %8 = alloca ptr, align 8
  %9 = alloca i32, align 4
  %10 = alloca i32, align 4
  %11 = alloca i32, align 4
  %12 = alloca i32, align 4
  %13 = alloca ptr, align 8
  %14 = alloca ptr, align 8
  %15 = alloca i32, align 4
  %16 = alloca i32, align 4
  %17 = alloca i32, align 4
  %18 = alloca i32, align 4
  %19 = getelementptr inbounds nuw %struct.Pf_Mat_t_, ptr %7, i32 0, i32 0
  store i32 %5, ptr %19, align 4
  store ptr %0, ptr %8, align 8, !tbaa !3
  store i32 %1, ptr %9, align 4, !tbaa !12
  store i32 %2, ptr %10, align 4, !tbaa !12
  store i32 %3, ptr %11, align 4, !tbaa !12
  store i32 %4, ptr %12, align 4, !tbaa !12
  call void @llvm.lifetime.start.p0(i64 8, ptr %13) #13
  %20 = load ptr, ptr %8, align 8, !tbaa !3
  %21 = getelementptr inbounds nuw %struct.Pf_Man_t_, ptr %20, i32 0, i32 4
  %22 = load ptr, ptr %21, align 8, !tbaa !63
  %23 = load i32, ptr %12, align 4, !tbaa !12
  %24 = sext i32 %23 to i64
  %25 = getelementptr inbounds %struct.Mio_Cell_t_, ptr %22, i64 %24
  store ptr %25, ptr %13, align 8, !tbaa !51
  call void @llvm.lifetime.start.p0(i64 8, ptr %14) #13
  %26 = load ptr, ptr %8, align 8, !tbaa !3
  %27 = getelementptr inbounds nuw %struct.Pf_Man_t_, ptr %26, i32 0, i32 2
  %28 = load ptr, ptr %27, align 8, !tbaa !14
  %29 = load i32, ptr %10, align 4, !tbaa !12
  %30 = call ptr @Vec_MemReadEntry(ptr noundef %28, i32 noundef %29)
  store ptr %30, ptr %14, align 8, !tbaa !36
  call void @llvm.lifetime.start.p0(i64 4, ptr %15) #13
  call void @llvm.lifetime.start.p0(i64 4, ptr %16) #13
  %31 = load ptr, ptr %14, align 8, !tbaa !36
  %32 = call i32 @Abc_TtSupportSize(ptr noundef %31, i32 noundef 6)
  store i32 %32, ptr %16, align 4, !tbaa !12
  %33 = load i32, ptr %9, align 4, !tbaa !12
  %34 = call i32 (ptr, ...) @printf(ptr noundef @.str, i32 noundef %33)
  %35 = load i32, ptr %10, align 4, !tbaa !12
  %36 = call i32 (ptr, ...) @printf(ptr noundef @.str, i32 noundef %35)
  %37 = load i32, ptr %11, align 4, !tbaa !12
  %38 = call i32 (ptr, ...) @printf(ptr noundef @.str, i32 noundef %37)
  %39 = load ptr, ptr %13, align 8, !tbaa !51
  %40 = getelementptr inbounds nuw %struct.Mio_Cell_t_, ptr %39, i32 0, i32 0
  %41 = load ptr, ptr %40, align 8, !tbaa !68
  %42 = call i32 (ptr, ...) @printf(ptr noundef @.str.1, ptr noundef %41)
  %43 = load ptr, ptr %13, align 8, !tbaa !51
  %44 = getelementptr inbounds nuw %struct.Mio_Cell_t_, ptr %43, i32 0, i32 2
  %45 = load float, ptr %44, align 4, !tbaa !69
  %46 = fpext float %45 to double
  %47 = call i32 (ptr, ...) @printf(ptr noundef @.str.2, double noundef %46)
  %48 = load ptr, ptr %13, align 8, !tbaa !51
  %49 = getelementptr inbounds nuw %struct.Mio_Cell_t_, ptr %48, i32 0, i32 1
  %50 = load i32, ptr %49, align 8
  %51 = lshr i32 %50, 28
  %52 = call i32 (ptr, ...) @printf(ptr noundef @.str.3, i32 noundef %51)
  %53 = load i32, ptr %7, align 4
  %54 = and i32 %53, 255
  %55 = icmp ne i32 %54, 0
  br i1 %55, label %56, label %58

56:                                               ; preds = %6
  %57 = call i32 (ptr, ...) @printf(ptr noundef @.str.4)
  br label %60

58:                                               ; preds = %6
  %59 = call i32 (ptr, ...) @printf(ptr noundef @.str.5)
  br label %60

60:                                               ; preds = %58, %56
  store i32 0, ptr %15, align 4, !tbaa !12
  br label %61

61:                                               ; preds = %87, %60
  %62 = load i32, ptr %15, align 4, !tbaa !12
  %63 = load ptr, ptr %13, align 8, !tbaa !51
  %64 = getelementptr inbounds nuw %struct.Mio_Cell_t_, ptr %63, i32 0, i32 1
  %65 = load i32, ptr %64, align 8
  %66 = lshr i32 %65, 28
  %67 = icmp slt i32 %62, %66
  br i1 %67, label %68, label %90

68:                                               ; preds = %61
  call void @llvm.lifetime.start.p0(i64 4, ptr %17) #13
  %69 = load i32, ptr %7, align 4
  %70 = lshr i32 %69, 8
  %71 = and i32 %70, 63
  %72 = load i32, ptr %15, align 4, !tbaa !12
  %73 = ashr i32 %71, %72
  %74 = and i32 %73, 1
  store i32 %74, ptr %17, align 4, !tbaa !12
  call void @llvm.lifetime.start.p0(i64 4, ptr %18) #13
  %75 = load i32, ptr %7, align 4
  %76 = lshr i32 %75, 14
  %77 = load i32, ptr %15, align 4, !tbaa !12
  %78 = mul nsw i32 3, %77
  %79 = ashr i32 %76, %78
  %80 = and i32 %79, 7
  store i32 %80, ptr %18, align 4, !tbaa !12
  %81 = load i32, ptr %18, align 4, !tbaa !12
  %82 = add nsw i32 97, %81
  %83 = load i32, ptr %17, align 4, !tbaa !12
  %84 = mul nsw i32 %83, 32
  %85 = sub nsw i32 %82, %84
  %86 = call i32 (ptr, ...) @printf(ptr noundef @.str.6, i32 noundef %85)
  call void @llvm.lifetime.end.p0(i64 4, ptr %18) #13
  call void @llvm.lifetime.end.p0(i64 4, ptr %17) #13
  br label %87

87:                                               ; preds = %68
  %88 = load i32, ptr %15, align 4, !tbaa !12
  %89 = add nsw i32 %88, 1
  store i32 %89, ptr %15, align 4, !tbaa !12
  br label %61, !llvm.loop !70

90:                                               ; preds = %61
  %91 = call i32 (ptr, ...) @printf(ptr noundef @.str.7)
  %92 = load ptr, ptr %14, align 8, !tbaa !36
  %93 = load i32, ptr %16, align 4, !tbaa !12
  call void @Dau_DsdPrintFromTruth(ptr noundef %92, i32 noundef %93)
  call void @llvm.lifetime.end.p0(i64 4, ptr %16) #13
  call void @llvm.lifetime.end.p0(i64 4, ptr %15) #13
  call void @llvm.lifetime.end.p0(i64 8, ptr %14) #13
  call void @llvm.lifetime.end.p0(i64 8, ptr %13) #13
  ret void
}